target datalayout = "e-m:e-p270:32:32-p271:32:32-p272:64:64-i64:64-i128:128-f80:128-n8:16:32:64-S128"
target triple = "x86_64-pc-linux-gnu"

; Function Attrs: nounwind uwtable
define dso_local i32 @xgethostname(ptr noundef %0, i64 noundef %1) #0 {
  %3 = alloca ptr, align 8
  %4 = alloca i64, align 8
  %5 = alloca i32, align 4
  store ptr %0, ptr %3, align 8, !tbaa !4
  store i64 %1, ptr %4, align 8, !tbaa !9
  call void @llvm.lifetime.start.p0(i64 4, ptr %5) #13
  %6 = load ptr, ptr %3, align 8, !tbaa !4
  %7 = load i64, ptr %4, align 8, !tbaa !9
  %8 = call i32 @gethostname(ptr noundef %6, i64 noundef %7) #13
  store i32 %8, ptr %5, align 4, !tbaa !11
  %9 = load i32, ptr %5, align 4, !tbaa !11
  %10 = icmp ne i32 %9, 0
  br i1 %10, label %16, label %11

11:                                               ; preds = %2
  %12 = load ptr, ptr %3, align 8, !tbaa !4
  %13 = load i64, ptr %4, align 8, !tbaa !9
  %14 = sub i64 %13, 1
  %15 = getelementptr inbounds nuw i8, ptr %12, i64 %14
  store i8 0, ptr %15, align 1, !tbaa !14
  br label %16

16:                                               ; preds = %11, %2
  %17 = load i32, ptr %5, align 4, !tbaa !11
  call void @llvm.lifetime.end.p0(i64 4, ptr %5) #13
  ret i32 %17
}