; Function Attrs: nounwind uwtable
define dso_local i32 @xgethostname(ptr noundef %0, i64 noundef %1) local_unnamed_addr #0 {
  %3 = tail call i32 @gethostname(ptr noundef %0, i64 noundef %1) #20
  %.not = icmp eq i32 %3, 0
  br i1 %.not, label %4, label %7

4:                                                ; preds = %2
  %5 = getelementptr i8, ptr %0, i64 %1
  %6 = getelementptr i8, ptr %5, i64 -1
  store i8 0, ptr %6, align 1, !tbaa !8
  br label %7

7:                                                ; preds = %4, %2
  ret i32 %3
}